target datalayout = "e-m:e-p270:32:32-p271:32:32-p272:64:64-i64:64-i128:128-f80:128-n8:16:32:64-S128"
target triple = "x86_64-pc-linux-gnu"

%union.pthread_mutex_t = type { %struct.__pthread_mutex_s }
%struct.__pthread_mutex_s = type { i32, i32, i32, i32, i32, i16, i16, %struct.__pthread_internal_list }
%struct.__pthread_internal_list = type { ptr, ptr }
%struct.anon.0 = type { %union.pthread_mutex_t, i32, ptr, ptr, i8 }

@.str.43 = private unnamed_addr constant [29 x i8] c"%s: pthread_mutex_lock(): %m\00", align 1
@.str.44 = private unnamed_addr constant [31 x i8] c"%s: pthread_mutex_unlock(): %m\00", align 1
@listeners = internal global { %union.pthread_mutex_t, i32, [4 x i8], ptr, ptr, i8, [7 x i8] } zeroinitializer, align 8
@.str.144 = private unnamed_addr constant [29 x i8] c"%s: [%s] Closed RPC listener\00", align 1
@__func__._on_listen_finish = private unnamed_addr constant [18 x i8] c"_on_listen_finish\00", align 1

; Function Attrs: nounwind uwtable
define internal void @_on_listen_finish(ptr noundef %0, ptr noundef %1) #0 {
  %3 = alloca ptr, align 8
  %4 = alloca ptr, align 8
  %5 = alloca ptr, align 8
  %6 = alloca i32, align 4
  %7 = alloca i32, align 4
  %8 = alloca i32, align 4
  store ptr %0, ptr %3, align 8
  store ptr %1, ptr %4, align 8
  call void @llvm.lifetime.start.p0(i64 8, ptr %5) #11
  %9 = load ptr, ptr %4, align 8
  store ptr %9, ptr %5, align 8
  call void @llvm.lifetime.start.p0(i64 4, ptr %6) #11
  %10 = load ptr, ptr %5, align 8
  %11 = load i32, ptr %10, align 4
  store i32 %11, ptr %6, align 4
  br label %12

12:                                               ; preds = %2
  br label %13

13:                                               ; preds = %12
  %14 = call i32 @get_log_level()
  %15 = icmp sge i32 %14, 7
  br i1 %15, label %16, label %19

16:                                               ; preds = %13
  %17 = load ptr, ptr %3, align 8
  %18 = call ptr @conmgr_fd_get_name(ptr noundef %17)
  call void (i32, ptr, ...) @log_var(i32 noundef 7, ptr noundef @.str.144, ptr noundef @__func__._on_listen_finish, ptr noundef %18)
  br label %19

19:                                               ; preds = %16, %13
  br label %20

20:                                               ; preds = %19
  br label %21

21:                                               ; preds = %20
  br label %22

22:                                               ; preds = %21
  br label %23

23:                                               ; preds = %22
  br label %24

24:                                               ; preds = %23
  call void @llvm.lifetime.start.p0(i64 4, ptr %7) #11
  %25 = call i32 @pthread_mutex_lock(ptr noundef @listeners) #11
  store i32 %25, ptr %7, align 4
  %26 = load i32, ptr %7, align 4
  %27 = icmp ne i32 %26, 0
  br i1 %27, label %28, label %31

28:                                               ; preds = %24
  %29 = load i32, ptr %7, align 4
  %30 = call ptr @__errno_location() #14
  store i32 %29, ptr %30, align 4
  call void (ptr, ...) @fatal_abort(ptr noundef @.str.43, ptr noundef @__func__._on_listen_finish) #12
  unreachable

31:                                               ; preds = %24
  call void @llvm.lifetime.end.p0(i64 4, ptr %7) #11
  br label %32

32:                                               ; preds = %31
  br label %33

33:                                               ; preds = %32
  %34 = load ptr, ptr getelementptr inbounds nuw (%struct.anon.0, ptr @listeners, i32 0, i32 3), align 8
  %35 = load i32, ptr %6, align 4
  %36 = sext i32 %35 to i64
  %37 = getelementptr inbounds ptr, ptr %34, i64 %36
  store ptr null, ptr %37, align 8
  br label %38

38:                                               ; preds = %33
  call void @llvm.lifetime.start.p0(i64 4, ptr %8) #11
  %39 = call i32 @pthread_mutex_unlock(ptr noundef @listeners) #11
  store i32 %39, ptr %8, align 4
  %40 = load i32, ptr %8, align 4
  %41 = icmp ne i32 %40, 0
  br i1 %41, label %42, label %45

42:                                               ; preds = %38
  %43 = load i32, ptr %8, align 4
  %44 = call ptr @__errno_location() #14
  store i32 %43, ptr %44, align 4
  call void (ptr, ...) @fatal_abort(ptr noundef @.str.44, ptr noundef @__func__._on_listen_finish) #12
  unreachable

45:                                               ; preds = %38
  call void @llvm.lifetime.end.p0(i64 4, ptr %8) #11
  br label %46

46:                                               ; preds = %45
  br label %47

47:                                               ; preds = %46
  call void @slurm_xfree(ptr noundef %5)
  call void @llvm.lifetime.end.p0(i64 4, ptr %6) #11
  call void @llvm.lifetime.end.p0(i64 8, ptr %5) #11
  ret void
}