; Function Attrs: nounwind uwtable
define internal void @_on_listen_finish(ptr noundef %0, ptr noundef %1) #6 {
  %3 = alloca ptr, align 8
  call void @llvm.lifetime.start.p0(i64 8, ptr nonnull %3) #19
  store ptr %1, ptr %3, align 8
  %4 = load i32, ptr %1, align 4
  %5 = tail call i32 @get_log_level() #19
  %6 = icmp sgt i32 %5, 6
  br i1 %6, label %7, label %9

7:                                                ; preds = %2
  %8 = tail call ptr @conmgr_fd_get_name(ptr noundef %0) #19
  tail call void (i32, ptr, ...) @log_var(i32 noundef 7, ptr noundef nonnull @.str.144, ptr noundef nonnull @__func__._on_listen_finish, ptr noundef %8) #19
  br label %9

9:                                                ; preds = %2, %7
  %10 = tail call i32 @pthread_mutex_lock(ptr noundef nonnull @listeners) #19
  %.not = icmp eq i32 %10, 0
  br i1 %.not, label %13, label %11

11:                                               ; preds = %9
  %12 = tail call ptr @__errno_location() #21
  store i32 %10, ptr %12, align 4
  tail call void (ptr, ...) @fatal_abort(ptr noundef nonnull @.str.43, ptr noundef nonnull @__func__._on_listen_finish) #20
  unreachable

13:                                               ; preds = %9
  %14 = load ptr, ptr getelementptr inbounds nuw (i8, ptr @listeners, i64 56), align 8
  %15 = sext i32 %4 to i64
  %16 = getelementptr inbounds ptr, ptr %14, i64 %15
  store ptr null, ptr %16, align 8
  %17 = tail call i32 @pthread_mutex_unlock(ptr noundef nonnull @listeners) #19
  %.not7 = icmp eq i32 %17, 0
  br i1 %.not7, label %20, label %18

18:                                               ; preds = %13
  %19 = tail call ptr @__errno_location() #21
  store i32 %17, ptr %19, align 4
  tail call void (ptr, ...) @fatal_abort(ptr noundef nonnull @.str.44, ptr noundef nonnull @__func__._on_listen_finish) #20
  unreachable

20:                                               ; preds = %13
  call void @slurm_xfree(ptr noundef nonnull %3) #19
  call void @llvm.lifetime.end.p0(i64 8, ptr nonnull %3) #19
  ret void
}